target datalayout = "e-m:e-p270:32:32-p271:32:32-p272:64:64-i64:64-i128:128-f80:128-n8:16:32:64-S128"
target triple = "x86_64-pc-linux-gnu"

%struct.FT_ListRec_ = type { ptr, ptr }
%struct.FT_CharMapRec_ = type { ptr, i32, i16, i16 }
%struct.T1_FaceRec_ = type { %struct.FT_FaceRec_, %struct.T1_FontRec_, ptr, ptr, ptr, [2 x %struct.FT_CharMapRec_], [2 x ptr], ptr, i32, i32, i32, ptr, ptr }
%struct.FT_FaceRec_ = type { i64, i64, i64, i64, i64, ptr, ptr, i32, ptr, i32, ptr, %struct.FT_Generic_, %struct.FT_BBox_, i16, i16, i16, i16, i16, i16, i16, i16, ptr, ptr, ptr, ptr, ptr, ptr, %struct.FT_ListRec_, %struct.FT_Generic_, ptr, ptr }
%struct.FT_BBox_ = type { i64, i64, i64, i64 }
%struct.FT_Generic_ = type { ptr, ptr }
%struct.T1_FontRec_ = type { %struct.PS_FontInfoRec_, %struct.PS_FontExtraRec_, %struct.PS_PrivateRec_, ptr, i32, %struct.T1_EncodingRecRec_, ptr, ptr, ptr, i32, ptr, ptr, ptr, i32, ptr, ptr, ptr, i8, i8, %struct.FT_Matrix_, %struct.FT_Vector_, %struct.FT_BBox_, i64, i64 }
%struct.PS_FontInfoRec_ = type { ptr, ptr, ptr, ptr, ptr, i64, i8, i16, i16 }
%struct.PS_FontExtraRec_ = type { i16 }
%struct.PS_PrivateRec_ = type { i32, i32, i8, i8, i8, i8, [14 x i16], [10 x i16], [14 x i16], [10 x i16], i64, i32, i32, [1 x i16], [1 x i16], i8, i8, i8, i8, [13 x i16], [13 x i16], i64, i64, i64, [2 x i16] }
%struct.T1_EncodingRecRec_ = type { i32, i32, i32, ptr, ptr }
%struct.FT_Matrix_ = type { i64, i64, i64, i64 }
%struct.FT_Vector_ = type { i64, i64 }
%struct.PS_BlendRec_ = type { i32, i32, [4 x ptr], [16 x ptr], [4 x %struct.PS_DesignMap_], ptr, ptr, [17 x ptr], [17 x ptr], i64, [17 x ptr], [16 x i32], i32 }
%struct.PS_DesignMap_ = type { i8, ptr, ptr }

; Function Attrs: nounwind uwtable
define internal void @T1_Done_Blend(ptr noundef %0) #0 {
  %2 = alloca ptr, align 8
  %3 = alloca ptr, align 8
  %4 = alloca ptr, align 8
  %5 = alloca ptr, align 8
  %6 = alloca i32, align 4
  %7 = alloca i32, align 4
  %8 = alloca i32, align 4
  %9 = alloca ptr, align 8
  store ptr %0, ptr %2, align 8
  %10 = load ptr, ptr %2, align 8
  store ptr %10, ptr %3, align 8
  %11 = load ptr, ptr %2, align 8
  %12 = getelementptr inbounds %struct.FT_FaceRec_, ptr %11, i32 0, i32 25
  %13 = load ptr, ptr %12, align 8
  store ptr %13, ptr %4, align 8
  %14 = load ptr, ptr %3, align 8
  %15 = getelementptr inbounds %struct.T1_FaceRec_, ptr %14, i32 0, i32 7
  %16 = load ptr, ptr %15, align 8
  store ptr %16, ptr %5, align 8
  %17 = load ptr, ptr %5, align 8
  %18 = icmp ne ptr %17, null
  br i1 %18, label %19, label %178

19:                                               ; preds = %1
  %20 = load ptr, ptr %5, align 8
  %21 = getelementptr inbounds %struct.PS_BlendRec_, ptr %20, i32 0, i32 0
  %22 = load i32, ptr %21, align 8
  store i32 %22, ptr %6, align 4
  %23 = load ptr, ptr %5, align 8
  %24 = getelementptr inbounds %struct.PS_BlendRec_, ptr %23, i32 0, i32 1
  %25 = load i32, ptr %24, align 4
  store i32 %25, ptr %7, align 4
  br label %26

26:                                               ; preds = %19
  %27 = load ptr, ptr %4, align 8
  %28 = load ptr, ptr %5, align 8
  %29 = getelementptr inbounds %struct.PS_BlendRec_, ptr %28, i32 0, i32 3
  %30 = getelementptr inbounds [16 x ptr], ptr %29, i64 0, i64 0
  %31 = load ptr, ptr %30, align 8
  call void @ft_mem_free(ptr noundef %27, ptr noundef %31)
  %32 = load ptr, ptr %5, align 8
  %33 = getelementptr inbounds %struct.PS_BlendRec_, ptr %32, i32 0, i32 3
  %34 = getelementptr inbounds [16 x ptr], ptr %33, i64 0, i64 0
  store ptr null, ptr %34, align 8
  br label %35

35:                                               ; preds = %26
  store i32 1, ptr %8, align 4
  br label %36

36:                                               ; preds = %46, %35
  %37 = load i32, ptr %8, align 4
  %38 = load i32, ptr %6, align 4
  %39 = icmp ult i32 %37, %38
  br i1 %39, label %40, label %49

40:                                               ; preds = %36
  %41 = load ptr, ptr %5, align 8
  %42 = getelementptr inbounds %struct.PS_BlendRec_, ptr %41, i32 0, i32 3
  %43 = load i32, ptr %8, align 4
  %44 = zext i32 %43 to i64
  %45 = getelementptr inbounds [16 x ptr], ptr %42, i64 0, i64 %44
  store ptr null, ptr %45, align 8
  br label %46

46:                                               ; preds = %40
  %47 = load i32, ptr %8, align 4
  %48 = add i32 %47, 1
  store i32 %48, ptr %8, align 4
  br label %36, !llvm.loop !26

49:                                               ; preds = %36
  br label %50

50:                                               ; preds = %49
  %51 = load ptr, ptr %4, align 8
  %52 = load ptr, ptr %5, align 8
  %53 = getelementptr inbounds %struct.PS_BlendRec_, ptr %52, i32 0, i32 8
  %54 = getelementptr inbounds [17 x ptr], ptr %53, i64 0, i64 1
  %55 = load ptr, ptr %54, align 8
  call void @ft_mem_free(ptr noundef %51, ptr noundef %55)
  %56 = load ptr, ptr %5, align 8
  %57 = getelementptr inbounds %struct.PS_BlendRec_, ptr %56, i32 0, i32 8
  %58 = getelementptr inbounds [17 x ptr], ptr %57, i64 0, i64 1
  store ptr null, ptr %58, align 8
  br label %59

59:                                               ; preds = %50
  br label %60

60:                                               ; preds = %59
  %61 = load ptr, ptr %4, align 8
  %62 = load ptr, ptr %5, align 8
  %63 = getelementptr inbounds %struct.PS_BlendRec_, ptr %62, i32 0, i32 7
  %64 = getelementptr inbounds [17 x ptr], ptr %63, i64 0, i64 1
  %65 = load ptr, ptr %64, align 8
  call void @ft_mem_free(ptr noundef %61, ptr noundef %65)
  %66 = load ptr, ptr %5, align 8
  %67 = getelementptr inbounds %struct.PS_BlendRec_, ptr %66, i32 0, i32 7
  %68 = getelementptr inbounds [17 x ptr], ptr %67, i64 0, i64 1
  store ptr null, ptr %68, align 8
  br label %69

69:                                               ; preds = %60
  br label %70

70:                                               ; preds = %69
  %71 = load ptr, ptr %4, align 8
  %72 = load ptr, ptr %5, align 8
  %73 = getelementptr inbounds %struct.PS_BlendRec_, ptr %72, i32 0, i32 10
  %74 = getelementptr inbounds [17 x ptr], ptr %73, i64 0, i64 1
  %75 = load ptr, ptr %74, align 8
  call void @ft_mem_free(ptr noundef %71, ptr noundef %75)
  %76 = load ptr, ptr %5, align 8
  %77 = getelementptr inbounds %struct.PS_BlendRec_, ptr %76, i32 0, i32 10
  %78 = getelementptr inbounds [17 x ptr], ptr %77, i64 0, i64 1
  store ptr null, ptr %78, align 8
  br label %79

79:                                               ; preds = %70
  store i32 0, ptr %8, align 4
  br label %80

80:                                               ; preds = %100, %79
  %81 = load i32, ptr %8, align 4
  %82 = load i32, ptr %6, align 4
  %83 = icmp ult i32 %81, %82
  br i1 %83, label %84, label %103

84:                                               ; preds = %80
  %85 = load ptr, ptr %5, align 8
  %86 = getelementptr inbounds %struct.PS_BlendRec_, ptr %85, i32 0, i32 8
  %87 = load i32, ptr %8, align 4
  %88 = zext i32 %87 to i64
  %89 = getelementptr inbounds [17 x ptr], ptr %86, i64 0, i64 %88
  store ptr null, ptr %89, align 8
  %90 = load ptr, ptr %5, align 8
  %91 = getelementptr inbounds %struct.PS_BlendRec_, ptr %90, i32 0, i32 7
  %92 = load i32, ptr %8, align 4
  %93 = zext i32 %92 to i64
  %94 = getelementptr inbounds [17 x ptr], ptr %91, i64 0, i64 %93
  store ptr null, ptr %94, align 8
  %95 = load ptr, ptr %5, align 8
  %96 = getelementptr inbounds %struct.PS_BlendRec_, ptr %95, i32 0, i32 10
  %97 = load i32, ptr %8, align 4
  %98 = zext i32 %97 to i64
  %99 = getelementptr inbounds [17 x ptr], ptr %96, i64 0, i64 %98
  store ptr null, ptr %99, align 8
  br label %100

100:                                              ; preds = %84
  %101 = load i32, ptr %8, align 4
  %102 = add i32 %101, 1
  store i32 %102, ptr %8, align 4
  br label %80, !llvm.loop !27

103:                                              ; preds = %80
  br label %104

104:                                              ; preds = %103
  %105 = load ptr, ptr %4, align 8
  %106 = load ptr, ptr %5, align 8
  %107 = getelementptr inbounds %struct.PS_BlendRec_, ptr %106, i32 0, i32 5
  %108 = load ptr, ptr %107, align 8
  call void @ft_mem_free(ptr noundef %105, ptr noundef %108)
  %109 = load ptr, ptr %5, align 8
  %110 = getelementptr inbounds %struct.PS_BlendRec_, ptr %109, i32 0, i32 5
  store ptr null, ptr %110, align 8
  br label %111

111:                                              ; preds = %104
  %112 = load ptr, ptr %5, align 8
  %113 = getelementptr inbounds %struct.PS_BlendRec_, ptr %112, i32 0, i32 6
  store ptr null, ptr %113, align 8
  store i32 0, ptr %8, align 4
  br label %114

114:                                              ; preds = %133, %111
  %115 = load i32, ptr %8, align 4
  %116 = load i32, ptr %7, align 4
  %117 = icmp ult i32 %115, %116
  br i1 %117, label %118, label %136

118:                                              ; preds = %114
  br label %119

119:                                              ; preds = %118
  %120 = load ptr, ptr %4, align 8
  %121 = load ptr, ptr %5, align 8
  %122 = getelementptr inbounds %struct.PS_BlendRec_, ptr %121, i32 0, i32 2
  %123 = load i32, ptr %8, align 4
  %124 = zext i32 %123 to i64
  %125 = getelementptr inbounds [4 x ptr], ptr %122, i64 0, i64 %124
  %126 = load ptr, ptr %125, align 8
  call void @ft_mem_free(ptr noundef %120, ptr noundef %126)
  %127 = load ptr, ptr %5, align 8
  %128 = getelementptr inbounds %struct.PS_BlendRec_, ptr %127, i32 0, i32 2
  %129 = load i32, ptr %8, align 4
  %130 = zext i32 %129 to i64
  %131 = getelementptr inbounds [4 x ptr], ptr %128, i64 0, i64 %130
  store ptr null, ptr %131, align 8
  br label %132

132:                                              ; preds = %119
  br label %133

133:                                              ; preds = %132
  %134 = load i32, ptr %8, align 4
  %135 = add i32 %134, 1
  store i32 %135, ptr %8, align 4
  br label %114, !llvm.loop !28

136:                                              ; preds = %114
  store i32 0, ptr %8, align 4
  br label %137

137:                                              ; preds = %166, %136
  %138 = load i32, ptr %8, align 4
  %139 = load i32, ptr %7, align 4
  %140 = icmp ult i32 %138, %139
  br i1 %140, label %141, label %169

141:                                              ; preds = %137
  %142 = load ptr, ptr %5, align 8
  %143 = getelementptr inbounds %struct.PS_BlendRec_, ptr %142, i32 0, i32 4
  %144 = getelementptr inbounds [4 x %struct.PS_DesignMap_], ptr %143, i64 0, i64 0
  %145 = load i32, ptr %8, align 4
  %146 = zext i32 %145 to i64
  %147 = getelementptr inbounds %struct.PS_DesignMap_, ptr %144, i64 %146
  store ptr %147, ptr %9, align 8
  br label %148

148:                                              ; preds = %141
  %149 = load ptr, ptr %4, align 8
  %150 = load ptr, ptr %9, align 8
  %151 = getelementptr inbounds %struct.PS_DesignMap_, ptr %150, i32 0, i32 2
  %152 = load ptr, ptr %151, align 8
  call void @ft_mem_free(ptr noundef %149, ptr noundef %152)
  %153 = load ptr, ptr %9, align 8
  %154 = getelementptr inbounds %struct.PS_DesignMap_, ptr %153, i32 0, i32 2
  store ptr null, ptr %154, align 8
  br label %155

155:                                              ; preds = %148
  br label %156

156:                                              ; preds = %155
  %157 = load ptr, ptr %4, align 8
  %158 = load ptr, ptr %9, align 8
  %159 = getelementptr inbounds %struct.PS_DesignMap_, ptr %158, i32 0, i32 1
  %160 = load ptr, ptr %159, align 8
  call void @ft_mem_free(ptr noundef %157, ptr noundef %160)
  %161 = load ptr, ptr %9, align 8
  %162 = getelementptr inbounds %struct.PS_DesignMap_, ptr %161, i32 0, i32 1
  store ptr null, ptr %162, align 8
  br label %163

163:                                              ; preds = %156
  %164 = load ptr, ptr %9, align 8
  %165 = getelementptr inbounds %struct.PS_DesignMap_, ptr %164, i32 0, i32 0
  store i8 0, ptr %165, align 8
  br label %166

166:                                              ; preds = %163
  %167 = load i32, ptr %8, align 4
  %168 = add i32 %167, 1
  store i32 %168, ptr %8, align 4
  br label %137, !llvm.loop !29

169:                                              ; preds = %137
  br label %170

170:                                              ; preds = %169
  %171 = load ptr, ptr %4, align 8
  %172 = load ptr, ptr %3, align 8
  %173 = getelementptr inbounds %struct.T1_FaceRec_, ptr %172, i32 0, i32 7
  %174 = load ptr, ptr %173, align 8
  call void @ft_mem_free(ptr noundef %171, ptr noundef %174)
  %175 = load ptr, ptr %3, align 8
  %176 = getelementptr inbounds %struct.T1_FaceRec_, ptr %175, i32 0, i32 7
  store ptr null, ptr %176, align 8
  br label %177

177:                                              ; preds = %170
  br label %178

178:                                              ; preds = %177, %1
  ret void
}