; Function Attrs: nounwind uwtable
define internal void @T1_Done_Blend(ptr nocapture noundef %0) #2 {
  %2 = getelementptr inbounds i8, ptr %0, i64 184
  %3 = load ptr, ptr %2, align 8
  %4 = getelementptr inbounds i8, ptr %0, i64 848
  %5 = load ptr, ptr %4, align 8
  %.not = icmp eq ptr %5, null
  br i1 %.not, label %42, label %6

6:                                                ; preds = %1
  %7 = load i32, ptr %5, align 8
  %8 = getelementptr inbounds i8, ptr %5, i64 4
  %9 = load i32, ptr %8, align 4
  %10 = getelementptr inbounds i8, ptr %5, i64 40
  %11 = load ptr, ptr %10, align 8
  tail call void @ft_mem_free(ptr noundef %3, ptr noundef %11) #16
  store ptr null, ptr %10, align 8
  %12 = icmp ugt i32 %7, 1
  br i1 %12, label %.lr.ph.preheader, label %._crit_edge

.lr.ph.preheader:                                 ; preds = %6
  %scevgep = getelementptr i8, ptr %5, i64 48
  %13 = add i32 %7, -1
  %14 = zext i32 %13 to i64
  %15 = shl nuw nsw i64 %14, 3
  tail call void @llvm.memset.p0.i64(ptr align 8 %scevgep, i8 0, i64 %15, i1 false)
  br label %._crit_edge

._crit_edge:                                      ; preds = %.lr.ph.preheader, %6
  %16 = getelementptr i8, ptr %5, i64 416
  %17 = getelementptr inbounds i8, ptr %5, i64 424
  %18 = load ptr, ptr %17, align 8
  tail call void @ft_mem_free(ptr noundef %3, ptr noundef %18) #16
  store ptr null, ptr %17, align 8
  %19 = getelementptr i8, ptr %5, i64 280
  %20 = getelementptr inbounds i8, ptr %5, i64 288
  %21 = load ptr, ptr %20, align 8
  tail call void @ft_mem_free(ptr noundef %3, ptr noundef %21) #16
  store ptr null, ptr %20, align 8
  %22 = getelementptr i8, ptr %5, i64 560
  %23 = getelementptr inbounds i8, ptr %5, i64 568
  %24 = load ptr, ptr %23, align 8
  tail call void @ft_mem_free(ptr noundef %3, ptr noundef %24) #16
  store ptr null, ptr %23, align 8
  %.not72 = icmp eq i32 %7, 0
  br i1 %.not72, label %._crit_edge65, label %.lr.ph64.preheader

.lr.ph64.preheader:                               ; preds = %._crit_edge
  %wide.trip.count = zext i32 %7 to i64
  br label %.lr.ph64

.lr.ph64:                                         ; preds = %.lr.ph64.preheader, %.lr.ph64
  %indvars.iv = phi i64 [ 0, %.lr.ph64.preheader ], [ %indvars.iv.next, %.lr.ph64 ]
  %25 = getelementptr inbounds [17 x ptr], ptr %16, i64 0, i64 %indvars.iv
  store ptr null, ptr %25, align 8
  %26 = getelementptr inbounds [17 x ptr], ptr %19, i64 0, i64 %indvars.iv
  store ptr null, ptr %26, align 8
  %27 = getelementptr inbounds [17 x ptr], ptr %22, i64 0, i64 %indvars.iv
  store ptr null, ptr %27, align 8
  %indvars.iv.next = add nuw nsw i64 %indvars.iv, 1
  %exitcond.not = icmp eq i64 %indvars.iv.next, %wide.trip.count
  br i1 %exitcond.not, label %._crit_edge65, label %.lr.ph64, !llvm.loop !33

._crit_edge65:                                    ; preds = %.lr.ph64, %._crit_edge
  %28 = getelementptr inbounds i8, ptr %5, i64 264
  %29 = load ptr, ptr %28, align 8
  tail call void @ft_mem_free(ptr noundef %3, ptr noundef %29) #16
  %.not73 = icmp eq i32 %9, 0
  tail call void @llvm.memset.p0.i64(ptr noundef nonnull align 8 dereferenceable(16) %28, i8 0, i64 16, i1 false)
  br i1 %.not73, label %._crit_edge71, label %.lr.ph68

.lr.ph68:                                         ; preds = %._crit_edge65
  %30 = getelementptr inbounds i8, ptr %5, i64 8
  %wide.trip.count80 = zext i32 %9 to i64
  br label %32

.preheader:                                       ; preds = %32
  br i1 %.not73, label %._crit_edge71, label %.lr.ph70

.lr.ph70:                                         ; preds = %.preheader
  %31 = getelementptr inbounds i8, ptr %5, i64 168
  %wide.trip.count85 = zext i32 %9 to i64
  br label %35

32:                                               ; preds = %.lr.ph68, %32
  %indvars.iv77 = phi i64 [ 0, %.lr.ph68 ], [ %indvars.iv.next78, %32 ]
  %33 = getelementptr inbounds [4 x ptr], ptr %30, i64 0, i64 %indvars.iv77
  %34 = load ptr, ptr %33, align 8
  tail call void @ft_mem_free(ptr noundef %3, ptr noundef %34) #16
  store ptr null, ptr %33, align 8
  %indvars.iv.next78 = add nuw nsw i64 %indvars.iv77, 1
  %exitcond81.not = icmp eq i64 %indvars.iv.next78, %wide.trip.count80
  br i1 %exitcond81.not, label %.preheader, label %32, !llvm.loop !34

35:                                               ; preds = %.lr.ph70, %35
  %indvars.iv82 = phi i64 [ 0, %.lr.ph70 ], [ %indvars.iv.next83, %35 ]
  %36 = getelementptr inbounds %struct.PS_DesignMap_, ptr %31, i64 %indvars.iv82
  %37 = getelementptr inbounds i8, ptr %36, i64 16
  %38 = load ptr, ptr %37, align 8
  tail call void @ft_mem_free(ptr noundef %3, ptr noundef %38) #16
  store ptr null, ptr %37, align 8
  %39 = getelementptr inbounds i8, ptr %36, i64 8
  %40 = load ptr, ptr %39, align 8
  tail call void @ft_mem_free(ptr noundef %3, ptr noundef %40) #16
  store ptr null, ptr %39, align 8
  store i8 0, ptr %36, align 8
  %indvars.iv.next83 = add nuw nsw i64 %indvars.iv82, 1
  %exitcond86.not = icmp eq i64 %indvars.iv.next83, %wide.trip.count85
  br i1 %exitcond86.not, label %._crit_edge71, label %35, !llvm.loop !35

._crit_edge71:                                    ; preds = %35, %._crit_edge65, %.preheader
  %41 = load ptr, ptr %4, align 8
  tail call void @ft_mem_free(ptr noundef %3, ptr noundef %41) #16
  store ptr null, ptr %4, align 8
  br label %42

42:                                               ; preds = %._crit_edge71, %1
  ret void
}